target datalayout = "e-m:e-p270:32:32-p271:32:32-p272:64:64-i64:64-i128:128-f80:128-n8:16:32:64-S128"
target triple = "x86_64-pc-linux-gnu"

%"class.std::basic_ostream" = type { ptr, %"class.std::basic_ios" }
%"class.std::basic_ios" = type { %"class.std::ios_base", ptr, i8, i8, ptr, ptr, ptr, ptr }
%"class.std::ios_base" = type { ptr, i64, i64, i32, i32, i32, ptr, %"struct.std::ios_base::_Words", [8 x %"struct.std::ios_base::_Words"], i32, ptr, %"class.std::locale" }
%"struct.std::ios_base::_Words" = type { ptr, i64 }
%"class.std::locale" = type { ptr }
%"class.testing::internal::GTestLog" = type { i32 }

@.str.131 = private unnamed_addr constant [103 x i8] c"generated/home/dtcxzyw/WorkSpace/SDK/vcpkg/installed/x64-linux/include/gtest/internal/gtest-internal.h\00", align 1
@.str.132 = private unnamed_addr constant [51 x i8] c"Condition !test_case_fp || !test_suite_fp failed. \00", align 1
@.str.133 = private unnamed_addr constant [107 x i8] c"Test can not provide both SetUpTestSuite and SetUpTestCase, please make sure there is only one present at \00", align 1
@.str.134 = private unnamed_addr constant [2 x i8] c":\00", align 1
@_ZSt4cerr = external global %"class.std::basic_ostream", align 8

; Function Attrs: mustprogress nounwind uwtable
define linkonce_odr dso_local noundef nonnull align 8 dereferenceable(8) ptr @_ZN7testing8internal8GTestLog9GetStreamEv(ptr noundef nonnull align 4 dereferenceable(4) %0) #5 comdat align 2 {
  %2 = alloca ptr, align 8
  store ptr %0, ptr %2, align 8
  ret ptr @_ZSt4cerr
}

; Function Attrs: mustprogress nounwind uwtable
define linkonce_odr dso_local noundef ptr @_ZN7testing8internal19GetNotDefaultOrNullEPFvvES2_(ptr noundef %0, ptr noundef %1) #5 comdat {
  %3 = alloca ptr, align 8
  %4 = alloca ptr, align 8
  store ptr %0, ptr %3, align 8
  store ptr %1, ptr %4, align 8
  %5 = load ptr, ptr %3, align 8
  %6 = load ptr, ptr %4, align 8
  %7 = icmp eq ptr %5, %6
  br i1 %7, label %8, label %9

8:                                                ; preds = %2
  br label %11

9:                                                ; preds = %2
  %10 = load ptr, ptr %3, align 8
  br label %11

11:                                               ; preds = %9, %8
  %12 = phi ptr [ null, %8 ], [ %10, %9 ]
  ret ptr %12
}

; Function Attrs: mustprogress uwtable
define internal noundef ptr @_ZN7testing8internal16SuiteApiResolverIN12_GLOBAL__N_117DiskInterfaceTestEE19GetSetUpCaseOrSuiteEPKci(ptr noundef %0, i32 noundef %1) #4 align 2 personality ptr @__gxx_personality_v0 {
  %3 = alloca ptr, align 8
  %4 = alloca i32, align 4
  %5 = alloca ptr, align 8
  %6 = alloca ptr, align 8
  %7 = alloca %"class.testing::internal::GTestLog", align 4
  %8 = alloca ptr, align 8
  %9 = alloca i32, align 4
  store ptr %0, ptr %3, align 8
  store i32 %1, ptr %4, align 4
  %10 = call noundef ptr @_ZN7testing8internal19GetNotDefaultOrNullEPFvvES2_(ptr noundef @_ZN7testing4Test13SetUpTestCaseEv, ptr noundef @_ZN7testing4Test13SetUpTestCaseEv)
  store ptr %10, ptr %5, align 8
  %11 = call noundef ptr @_ZN7testing8internal19GetNotDefaultOrNullEPFvvES2_(ptr noundef @_ZN7testing4Test14SetUpTestSuiteEv, ptr noundef @_ZN7testing4Test14SetUpTestSuiteEv)
  store ptr %11, ptr %6, align 8
  %12 = load ptr, ptr %5, align 8
  %13 = icmp ne ptr %12, null
  br i1 %13, label %14, label %18

14:                                               ; preds = %2
  %15 = load ptr, ptr %6, align 8
  %16 = icmp ne ptr %15, null
  %17 = xor i1 %16, true
  br label %18

18:                                               ; preds = %14, %2
  %19 = phi i1 [ true, %2 ], [ %17, %14 ]
  %20 = call noundef zeroext i1 @_ZN7testing8internal6IsTrueEb(i1 noundef zeroext %19)
  br i1 %20, label %21, label %22

21:                                               ; preds = %18
  br label %41

22:                                               ; preds = %18
  call void @_ZN7testing8internal8GTestLogC1ENS0_16GTestLogSeverityEPKci(ptr noundef nonnull align 4 dereferenceable(4) %7, i32 noundef 3, ptr noundef @.str.131, i32 noundef 528)
  %23 = invoke noundef nonnull align 8 dereferenceable(8) ptr @_ZN7testing8internal8GTestLog9GetStreamEv(ptr noundef nonnull align 4 dereferenceable(4) %7)
          to label %24 unwind label %37

24:                                               ; preds = %22
  %25 = invoke noundef nonnull align 8 dereferenceable(8) ptr @_ZStlsISt11char_traitsIcEERSt13basic_ostreamIcT_ES5_PKc(ptr noundef nonnull align 8 dereferenceable(8) %23, ptr noundef @.str.132)
          to label %26 unwind label %37

26:                                               ; preds = %24
  %27 = invoke noundef nonnull align 8 dereferenceable(8) ptr @_ZStlsISt11char_traitsIcEERSt13basic_ostreamIcT_ES5_PKc(ptr noundef nonnull align 8 dereferenceable(8) %25, ptr noundef @.str.133)
          to label %28 unwind label %37

28:                                               ; preds = %26
  %29 = load ptr, ptr %3, align 8
  %30 = invoke noundef nonnull align 8 dereferenceable(8) ptr @_ZStlsISt11char_traitsIcEERSt13basic_ostreamIcT_ES5_PKc(ptr noundef nonnull align 8 dereferenceable(8) %27, ptr noundef %29)
          to label %31 unwind label %37

31:                                               ; preds = %28
  %32 = invoke noundef nonnull align 8 dereferenceable(8) ptr @_ZStlsISt11char_traitsIcEERSt13basic_ostreamIcT_ES5_PKc(ptr noundef nonnull align 8 dereferenceable(8) %30, ptr noundef @.str.134)
          to label %33 unwind label %37

33:                                               ; preds = %31
  %34 = load i32, ptr %4, align 4
  %35 = invoke noundef nonnull align 8 dereferenceable(8) ptr @_ZNSolsEi(ptr noundef nonnull align 8 dereferenceable(8) %32, i32 noundef %34)
          to label %36 unwind label %37

36:                                               ; preds = %33
  call void @_ZN7testing8internal8GTestLogD1Ev(ptr noundef nonnull align 4 dereferenceable(4) %7) #3
  br label %41

37:                                               ; preds = %33, %31, %28, %26, %24, %22
  %38 = landingpad { ptr, i32 }
          cleanup
  %39 = extractvalue { ptr, i32 } %38, 0
  store ptr %39, ptr %8, align 8
  %40 = extractvalue { ptr, i32 } %38, 1
  store i32 %40, ptr %9, align 4
  call void @_ZN7testing8internal8GTestLogD1Ev(ptr noundef nonnull align 4 dereferenceable(4) %7) #3
  br label %50

41:                                               ; preds = %36, %21
  %42 = load ptr, ptr %5, align 8
  %43 = icmp ne ptr %42, null
  br i1 %43, label %44, label %46

44:                                               ; preds = %41
  %45 = load ptr, ptr %5, align 8
  br label %48

46:                                               ; preds = %41
  %47 = load ptr, ptr %6, align 8
  br label %48

48:                                               ; preds = %46, %44
  %49 = phi ptr [ %45, %44 ], [ %47, %46 ]
  ret ptr %49

50:                                               ; preds = %37
  %51 = load ptr, ptr %8, align 8
  %52 = load i32, ptr %9, align 4
  %53 = insertvalue { ptr, i32 } poison, ptr %51, 0
  %54 = insertvalue { ptr, i32 } %53, i32 %52, 1
  resume { ptr, i32 } %54
}